target datalayout = "e-m:e-p270:32:32-p271:32:32-p272:64:64-i64:64-i128:128-f80:128-n8:16:32:64-S128"
target triple = "x86_64-pc-linux-gnu"

%struct.MPVEncContext = type { %struct.MpegEncContext, %struct.PutBitContext, i32, i32, ptr, i32, i32, i32, i32, i32, i32, i32, i32, ptr, ptr, %struct.FDCTDSPContext, %struct.MpegvideoEncDSPContext, %struct.PixblockDSPContext, %struct.MotionEstContext, i32, i32, ptr, ptr, ptr, ptr, ptr, ptr, [2 x [2 x [2 x ptr]]], [2 x ptr], [2 x [2 x ptr]], ptr, ptr, ptr, ptr, [3 x i64], i32, i32, i32, i32, i32, ptr, ptr, ptr, ptr, ptr, ptr, ptr, [12 x i32], ptr, ptr, ptr, ptr, ptr, ptr, ptr, ptr, [2 x i32], ptr, i32, i32, i32, i32, i32, i32, i32, i32, i32, i32, ptr, ptr, i32, i32, %struct.PutBitContext, %struct.PutBitContext, i32, i32, i32, i32, ptr, ptr, ptr, [2 x ptr], [2 x ptr], [2 x ptr], [2 x ptr], ptr, i32 }
%struct.MpegEncContext = type { ptr, i32, i32, i32, [12 x i32], i32, %struct.ScanTable, %struct.ScanTable, [64 x i8], [64 x i8], ptr, ptr, i32, i32, i32, i32, i32, i32, i32, i32, i32, i32, i32, i32, i32, i32, i32, i32, i32, i32, i32, i32, i64, i64, ptr, %struct.BufferPoolContext, i32, i32, %union.anon, i32, %struct.MPVWorkPicture, %struct.MPVWorkPicture, %struct.MPVWorkPicture, i32, [3 x i32], ptr, [3 x ptr], ptr, ptr, ptr, ptr, ptr, ptr, [3 x ptr], i32, ptr, ptr, ptr, ptr, %struct.ScratchpadContext, i32, i32, i32, i32, i32, i32, %struct.BlockDSPContext, %struct.H264ChromaContext, %struct.HpelDSPContext, %struct.IDCTDSPContext, %struct.QpelDSPContext, %struct.VideoDSPContext, %struct.H263DSPContext, ptr, [2 x [2 x ptr]], i32, i32, [2 x [4 x [2 x i32]]], [2 x [2 x i32]], [2 x [2 x [2 x i32]]], [2 x [64 x i16]], i32, i32, i32, i32, i32, [6 x i32], [6 x i32], [3 x ptr], ptr, [64 x i16], [64 x i16], [64 x i16], [64 x i16], i32, i32, %struct.GetBitContext, i32, i32, i32, i32, i32, i32, i32, i32, i32, i32, i32, i32, i32, i32, i32, i64, i64, i16, i16, i16, i16, i32, i32, i32, i32, i32, i32, i32, i32, i32, [3 x i32], i32, i32, i32, i32, i32, i32, %struct.GetBitContext, i32, [2 x [2 x i32]], i32, i32, i32, i32, i32, i32, i32, i32, i32, i32, i32, i32, i32, i32, [2 x i32], i32, i32, ptr, ptr, ptr, ptr, ptr, i32, i32, %struct.ERContext }
%struct.ScanTable = type { ptr, [64 x i8], [64 x i8] }
%struct.BufferPoolContext = type { ptr, ptr, ptr, ptr, ptr, i32, i32, i32 }
%union.anon = type { [32 x ptr] }
%struct.MPVWorkPicture = type { [3 x ptr], [3 x i64], ptr, ptr, [2 x ptr], ptr, ptr, [2 x ptr], i32 }
%struct.ScratchpadContext = type { ptr, ptr, %union.anon.0, i32 }
%union.anon.0 = type { ptr }
%struct.BlockDSPContext = type { ptr, ptr, [2 x ptr] }
%struct.H264ChromaContext = type { [4 x ptr], [4 x ptr] }
%struct.HpelDSPContext = type { [4 x [4 x ptr]], [4 x [4 x ptr]], [4 x [4 x ptr]], [4 x ptr] }
%struct.IDCTDSPContext = type { ptr, ptr, ptr, ptr, ptr, ptr, [64 x i8], i32, i32 }
%struct.QpelDSPContext = type { [2 x [16 x ptr]], [2 x [16 x ptr]], [2 x [16 x ptr]] }
%struct.VideoDSPContext = type { ptr, ptr }
%struct.H263DSPContext = type { ptr, ptr }
%struct.GetBitContext = type { ptr, ptr, i32, i32, i32 }
%struct.ERContext = type { ptr, ptr, i32, ptr, i32, i32, i32, i64, i64, i32, i32, ptr, ptr, [3 x ptr], ptr, ptr, [2 x [4 x [2 x i32]]], %struct.ERPicture, %struct.ERPicture, %struct.ERPicture, [2 x ptr], [2 x ptr], i16, i16, i32, i32, ptr, ptr }
%struct.ERPicture = type { ptr, ptr, ptr, [2 x ptr], [2 x ptr], ptr, i32 }
%struct.FDCTDSPContext = type { ptr, ptr }
%struct.MpegvideoEncDSPContext = type { ptr, ptr, ptr, ptr, [4 x ptr], ptr }
%struct.PixblockDSPContext = type { ptr, ptr, ptr, ptr }
%struct.MotionEstContext = type { ptr, i32, i32, [4 x [2 x i32]], [4 x [2 x i32]], ptr, ptr, i32, i32, i32, i32, i32, i32, i32, i32, i32, i32, i32, i32, i32, i32, i32, i32, [4 x [4 x ptr]], [4 x [4 x ptr]], i32, i32, i64, i64, i32, [6 x ptr], [6 x ptr], [6 x ptr], [6 x ptr], [2 x [4 x ptr]], ptr, ptr, ptr, ptr, ptr, ptr, ptr, ptr, [64 x i32], [64 x i32] }
%struct.PutBitContext = type { i32, i32, ptr, ptr, ptr }

; Function Attrs: nounwind uwtable
define internal i32 @dct_max8x8_c(ptr noundef %0, ptr noundef %1, ptr noundef %2, i64 noundef %3, i32 noundef %4) #2 {
  %6 = alloca ptr, align 8
  %7 = alloca ptr, align 8
  %8 = alloca ptr, align 8
  %9 = alloca i64, align 8
  %10 = alloca i32, align 4
  %11 = alloca [64 x i16], align 16
  %12 = alloca ptr, align 8
  %13 = alloca i32, align 4
  %14 = alloca i32, align 4
  store ptr %0, ptr %6, align 8, !tbaa !22
  store ptr %1, ptr %7, align 8, !tbaa !24
  store ptr %2, ptr %8, align 8, !tbaa !24
  store i64 %3, ptr %9, align 8, !tbaa !26
  store i32 %4, ptr %10, align 4, !tbaa !11
  call void @llvm.lifetime.start.p0(i64 128, ptr %11) #9
  call void @llvm.lifetime.start.p0(i64 8, ptr %12) #9
  %15 = getelementptr inbounds [64 x i16], ptr %11, i64 0, i64 0
  store ptr %15, ptr %12, align 8, !tbaa !32
  call void @llvm.lifetime.start.p0(i64 4, ptr %13) #9
  store i32 0, ptr %13, align 4, !tbaa !11
  call void @llvm.lifetime.start.p0(i64 4, ptr %14) #9
  %16 = load ptr, ptr %6, align 8, !tbaa !22
  %17 = getelementptr inbounds nuw %struct.MPVEncContext, ptr %16, i32 0, i32 17
  %18 = getelementptr inbounds nuw %struct.PixblockDSPContext, ptr %17, i32 0, i32 3
  %19 = load ptr, ptr %18, align 8, !tbaa !49
  %20 = load ptr, ptr %12, align 8, !tbaa !32
  %21 = load ptr, ptr %7, align 8, !tbaa !24
  %22 = load ptr, ptr %8, align 8, !tbaa !24
  %23 = load i64, ptr %9, align 8, !tbaa !26
  call void %19(ptr noundef %20, ptr noundef %21, ptr noundef %22, i64 noundef %23)
  %24 = load ptr, ptr %6, align 8, !tbaa !22
  %25 = getelementptr inbounds nuw %struct.MPVEncContext, ptr %24, i32 0, i32 15
  %26 = getelementptr inbounds nuw %struct.FDCTDSPContext, ptr %25, i32 0, i32 0
  %27 = load ptr, ptr %26, align 8, !tbaa !80
  %28 = load ptr, ptr %12, align 8, !tbaa !32
  call void %27(ptr noundef %28)
  store i32 0, ptr %14, align 4, !tbaa !11
  br label %29

29:                                               ; preds = %88, %5
  %30 = load i32, ptr %14, align 4, !tbaa !11
  %31 = icmp slt i32 %30, 64
  br i1 %31, label %32, label %91

32:                                               ; preds = %29
  %33 = load i32, ptr %13, align 4, !tbaa !11
  %34 = load ptr, ptr %12, align 8, !tbaa !32
  %35 = load i32, ptr %14, align 4, !tbaa !11
  %36 = sext i32 %35 to i64
  %37 = getelementptr inbounds i16, ptr %34, i64 %36
  %38 = load i16, ptr %37, align 2, !tbaa !34
  %39 = sext i16 %38 to i32
  %40 = icmp sge i32 %39, 0
  br i1 %40, label %41, label %48

41:                                               ; preds = %32
  %42 = load ptr, ptr %12, align 8, !tbaa !32
  %43 = load i32, ptr %14, align 4, !tbaa !11
  %44 = sext i32 %43 to i64
  %45 = getelementptr inbounds i16, ptr %42, i64 %44
  %46 = load i16, ptr %45, align 2, !tbaa !34
  %47 = sext i16 %46 to i32
  br label %56

48:                                               ; preds = %32
  %49 = load ptr, ptr %12, align 8, !tbaa !32
  %50 = load i32, ptr %14, align 4, !tbaa !11
  %51 = sext i32 %50 to i64
  %52 = getelementptr inbounds i16, ptr %49, i64 %51
  %53 = load i16, ptr %52, align 2, !tbaa !34
  %54 = sext i16 %53 to i32
  %55 = sub nsw i32 0, %54
  br label %56

56:                                               ; preds = %48, %41
  %57 = phi i32 [ %47, %41 ], [ %55, %48 ]
  %58 = icmp sgt i32 %33, %57
  br i1 %58, label %59, label %61

59:                                               ; preds = %56
  %60 = load i32, ptr %13, align 4, !tbaa !11
  br label %86

61:                                               ; preds = %56
  %62 = load ptr, ptr %12, align 8, !tbaa !32
  %63 = load i32, ptr %14, align 4, !tbaa !11
  %64 = sext i32 %63 to i64
  %65 = getelementptr inbounds i16, ptr %62, i64 %64
  %66 = load i16, ptr %65, align 2, !tbaa !34
  %67 = sext i16 %66 to i32
  %68 = icmp sge i32 %67, 0
  br i1 %68, label %69, label %76

69:                                               ; preds = %61
  %70 = load ptr, ptr %12, align 8, !tbaa !32
  %71 = load i32, ptr %14, align 4, !tbaa !11
  %72 = sext i32 %71 to i64
  %73 = getelementptr inbounds i16, ptr %70, i64 %72
  %74 = load i16, ptr %73, align 2, !tbaa !34
  %75 = sext i16 %74 to i32
  br label %84

76:                                               ; preds = %61
  %77 = load ptr, ptr %12, align 8, !tbaa !32
  %78 = load i32, ptr %14, align 4, !tbaa !11
  %79 = sext i32 %78 to i64
  %80 = getelementptr inbounds i16, ptr %77, i64 %79
  %81 = load i16, ptr %80, align 2, !tbaa !34
  %82 = sext i16 %81 to i32
  %83 = sub nsw i32 0, %82
  br label %84

84:                                               ; preds = %76, %69
  %85 = phi i32 [ %75, %69 ], [ %83, %76 ]
  br label %86

86:                                               ; preds = %84, %59
  %87 = phi i32 [ %60, %59 ], [ %85, %84 ]
  store i32 %87, ptr %13, align 4, !tbaa !11
  br label %88

88:                                               ; preds = %86
  %89 = load i32, ptr %14, align 4, !tbaa !11
  %90 = add nsw i32 %89, 1
  store i32 %90, ptr %14, align 4, !tbaa !11
  br label %29, !llvm.loop !82

91:                                               ; preds = %29
  %92 = load i32, ptr %13, align 4, !tbaa !11
  call void @llvm.lifetime.end.p0(i64 4, ptr %14) #9
  call void @llvm.lifetime.end.p0(i64 4, ptr %13) #9
  call void @llvm.lifetime.end.p0(i64 8, ptr %12) #9
  call void @llvm.lifetime.end.p0(i64 128, ptr %11) #9
  ret i32 %92
}

; Function Attrs: nounwind uwtable
define internal i32 @dct_max16_c(ptr noundef %0, ptr noundef %1, ptr noundef %2, i64 noundef %3, i32 noundef %4) #2 {
  %6 = alloca ptr, align 8
  %7 = alloca ptr, align 8
  %8 = alloca ptr, align 8
  %9 = alloca i64, align 8
  %10 = alloca i32, align 4
  %11 = alloca i32, align 4
  store ptr %0, ptr %6, align 8, !tbaa !22
  store ptr %1, ptr %7, align 8, !tbaa !24
  store ptr %2, ptr %8, align 8, !tbaa !24
  store i64 %3, ptr %9, align 8, !tbaa !26
  store i32 %4, ptr %10, align 4, !tbaa !11
  call void @llvm.lifetime.start.p0(i64 4, ptr %11) #9
  store i32 0, ptr %11, align 4, !tbaa !11
  %12 = load ptr, ptr %6, align 8, !tbaa !22
  %13 = load ptr, ptr %7, align 8, !tbaa !24
  %14 = load ptr, ptr %8, align 8, !tbaa !24
  %15 = load i64, ptr %9, align 8, !tbaa !26
  %16 = call i32 @dct_max8x8_c(ptr noundef %12, ptr noundef %13, ptr noundef %14, i64 noundef %15, i32 noundef 8)
  %17 = load i32, ptr %11, align 4, !tbaa !11
  %18 = add nsw i32 %17, %16
  store i32 %18, ptr %11, align 4, !tbaa !11
  %19 = load ptr, ptr %6, align 8, !tbaa !22
  %20 = load ptr, ptr %7, align 8, !tbaa !24
  %21 = getelementptr inbounds i8, ptr %20, i64 8
  %22 = load ptr, ptr %8, align 8, !tbaa !24
  %23 = getelementptr inbounds i8, ptr %22, i64 8
  %24 = load i64, ptr %9, align 8, !tbaa !26
  %25 = call i32 @dct_max8x8_c(ptr noundef %19, ptr noundef %21, ptr noundef %23, i64 noundef %24, i32 noundef 8)
  %26 = load i32, ptr %11, align 4, !tbaa !11
  %27 = add nsw i32 %26, %25
  store i32 %27, ptr %11, align 4, !tbaa !11
  %28 = load i32, ptr %10, align 4, !tbaa !11
  %29 = icmp eq i32 %28, 16
  br i1 %29, label %30, label %55

30:                                               ; preds = %5
  %31 = load i64, ptr %9, align 8, !tbaa !26
  %32 = mul nsw i64 8, %31
  %33 = load ptr, ptr %7, align 8, !tbaa !24
  %34 = getelementptr inbounds i8, ptr %33, i64 %32
  store ptr %34, ptr %7, align 8, !tbaa !24
  %35 = load i64, ptr %9, align 8, !tbaa !26
  %36 = mul nsw i64 8, %35
  %37 = load ptr, ptr %8, align 8, !tbaa !24
  %38 = getelementptr inbounds i8, ptr %37, i64 %36
  store ptr %38, ptr %8, align 8, !tbaa !24
  %39 = load ptr, ptr %6, align 8, !tbaa !22
  %40 = load ptr, ptr %7, align 8, !tbaa !24
  %41 = load ptr, ptr %8, align 8, !tbaa !24
  %42 = load i64, ptr %9, align 8, !tbaa !26
  %43 = call i32 @dct_max8x8_c(ptr noundef %39, ptr noundef %40, ptr noundef %41, i64 noundef %42, i32 noundef 8)
  %44 = load i32, ptr %11, align 4, !tbaa !11
  %45 = add nsw i32 %44, %43
  store i32 %45, ptr %11, align 4, !tbaa !11
  %46 = load ptr, ptr %6, align 8, !tbaa !22
  %47 = load ptr, ptr %7, align 8, !tbaa !24
  %48 = getelementptr inbounds i8, ptr %47, i64 8
  %49 = load ptr, ptr %8, align 8, !tbaa !24
  %50 = getelementptr inbounds i8, ptr %49, i64 8
  %51 = load i64, ptr %9, align 8, !tbaa !26
  %52 = call i32 @dct_max8x8_c(ptr noundef %46, ptr noundef %48, ptr noundef %50, i64 noundef %51, i32 noundef 8)
  %53 = load i32, ptr %11, align 4, !tbaa !11
  %54 = add nsw i32 %53, %52
  store i32 %54, ptr %11, align 4, !tbaa !11
  br label %55

55:                                               ; preds = %30, %5
  %56 = load i32, ptr %11, align 4, !tbaa !11
  call void @llvm.lifetime.end.p0(i64 4, ptr %11) #9
  ret i32 %56
}