; Function Attrs: nounwind uwtable
define internal range(i32 0, 131073) i32 @dct_max16_c(ptr noundef readonly captures(none) %0, ptr noundef %1, ptr noundef %2, i64 noundef %3, i32 noundef %4) #7 {
  %6 = alloca [64 x i16], align 16
  %7 = alloca [64 x i16], align 16
  %8 = alloca [64 x i16], align 16
  %9 = alloca [64 x i16], align 16
  call void @llvm.lifetime.start.p0(i64 128, ptr nonnull %9) #12
  %10 = getelementptr inbounds nuw i8, ptr %0, i64 5016
  %11 = load ptr, ptr %10, align 8, !tbaa !35
  call void %11(ptr noundef nonnull %9, ptr noundef %1, ptr noundef %2, i64 noundef %3) #12
  %12 = getelementptr inbounds nuw i8, ptr %0, i64 4904
  %13 = load ptr, ptr %12, align 8, !tbaa !71
  call void %13(ptr noundef nonnull %9) #12
  br label %14

14:                                               ; preds = %14, %5
  %indvars.iv.i = phi i64 [ 0, %5 ], [ %indvars.iv.next.i, %14 ]
  %.02327.i = phi i32 [ 0, %5 ], [ %spec.select.i, %14 ]
  %15 = getelementptr inbounds nuw i16, ptr %9, i64 %indvars.iv.i
  %16 = load i16, ptr %15, align 2, !tbaa !18
  %17 = call i16 @llvm.abs.i16(i16 %16, i1 false)
  %18 = zext i16 %17 to i32
  %spec.select.i = call i32 @llvm.umax.i32(i32 %.02327.i, i32 %18)
  %indvars.iv.next.i = add nuw nsw i64 %indvars.iv.i, 1
  %exitcond.not.i = icmp eq i64 %indvars.iv.next.i, 64
  br i1 %exitcond.not.i, label %dct_max8x8_c.exit, label %14, !llvm.loop !73

dct_max8x8_c.exit:                                ; preds = %14
  call void @llvm.lifetime.end.p0(i64 128, ptr nonnull %9) #12
  %19 = getelementptr inbounds nuw i8, ptr %1, i64 8
  %20 = getelementptr inbounds nuw i8, ptr %2, i64 8
  call void @llvm.lifetime.start.p0(i64 128, ptr nonnull %8) #12
  %21 = load ptr, ptr %10, align 8, !tbaa !35
  call void %21(ptr noundef nonnull %8, ptr noundef nonnull %19, ptr noundef nonnull %20, i64 noundef %3) #12
  %22 = load ptr, ptr %12, align 8, !tbaa !71
  call void %22(ptr noundef nonnull %8) #12
  br label %23

23:                                               ; preds = %23, %dct_max8x8_c.exit
  %indvars.iv.i25 = phi i64 [ 0, %dct_max8x8_c.exit ], [ %indvars.iv.next.i28, %23 ]
  %.02327.i26 = phi i32 [ 0, %dct_max8x8_c.exit ], [ %spec.select.i27, %23 ]
  %24 = getelementptr inbounds nuw i16, ptr %8, i64 %indvars.iv.i25
  %25 = load i16, ptr %24, align 2, !tbaa !18
  %26 = call i16 @llvm.abs.i16(i16 %25, i1 false)
  %27 = zext i16 %26 to i32
  %spec.select.i27 = call i32 @llvm.umax.i32(i32 %.02327.i26, i32 %27)
  %indvars.iv.next.i28 = add nuw nsw i64 %indvars.iv.i25, 1
  %exitcond.not.i29 = icmp eq i64 %indvars.iv.next.i28, 64
  br i1 %exitcond.not.i29, label %dct_max8x8_c.exit30, label %23, !llvm.loop !73

dct_max8x8_c.exit30:                              ; preds = %23
  call void @llvm.lifetime.end.p0(i64 128, ptr nonnull %8) #12
  %28 = add nuw nsw i32 %spec.select.i27, %spec.select.i
  %29 = icmp eq i32 %4, 16
  br i1 %29, label %30, label %52

30:                                               ; preds = %dct_max8x8_c.exit30
  %31 = shl nsw i64 %3, 3
  %32 = getelementptr inbounds i8, ptr %1, i64 %31
  %33 = getelementptr inbounds i8, ptr %2, i64 %31
  call void @llvm.lifetime.start.p0(i64 128, ptr nonnull %7) #12
  %34 = load ptr, ptr %10, align 8, !tbaa !35
  call void %34(ptr noundef nonnull %7, ptr noundef %32, ptr noundef %33, i64 noundef %3) #12
  %35 = load ptr, ptr %12, align 8, !tbaa !71
  call void %35(ptr noundef nonnull %7) #12
  br label %36

36:                                               ; preds = %36, %30
  %indvars.iv.i31 = phi i64 [ 0, %30 ], [ %indvars.iv.next.i34, %36 ]
  %.02327.i32 = phi i32 [ 0, %30 ], [ %spec.select.i33, %36 ]
  %37 = getelementptr inbounds nuw i16, ptr %7, i64 %indvars.iv.i31
  %38 = load i16, ptr %37, align 2, !tbaa !18
  %39 = call i16 @llvm.abs.i16(i16 %38, i1 false)
  %40 = zext i16 %39 to i32
  %spec.select.i33 = call i32 @llvm.umax.i32(i32 %.02327.i32, i32 %40)
  %indvars.iv.next.i34 = add nuw nsw i64 %indvars.iv.i31, 1
  %exitcond.not.i35 = icmp eq i64 %indvars.iv.next.i34, 64
  br i1 %exitcond.not.i35, label %dct_max8x8_c.exit36, label %36, !llvm.loop !73

dct_max8x8_c.exit36:                              ; preds = %36
  call void @llvm.lifetime.end.p0(i64 128, ptr nonnull %7) #12
  %41 = getelementptr inbounds nuw i8, ptr %32, i64 8
  %42 = getelementptr inbounds nuw i8, ptr %33, i64 8
  call void @llvm.lifetime.start.p0(i64 128, ptr nonnull %6) #12
  %43 = load ptr, ptr %10, align 8, !tbaa !35
  call void %43(ptr noundef nonnull %6, ptr noundef nonnull %41, ptr noundef nonnull %42, i64 noundef %3) #12
  %44 = load ptr, ptr %12, align 8, !tbaa !71
  call void %44(ptr noundef nonnull %6) #12
  br label %45

45:                                               ; preds = %45, %dct_max8x8_c.exit36
  %indvars.iv.i37 = phi i64 [ 0, %dct_max8x8_c.exit36 ], [ %indvars.iv.next.i40, %45 ]
  %.02327.i38 = phi i32 [ 0, %dct_max8x8_c.exit36 ], [ %spec.select.i39, %45 ]
  %46 = getelementptr inbounds nuw i16, ptr %6, i64 %indvars.iv.i37
  %47 = load i16, ptr %46, align 2, !tbaa !18
  %48 = call i16 @llvm.abs.i16(i16 %47, i1 false)
  %49 = zext i16 %48 to i32
  %spec.select.i39 = call i32 @llvm.umax.i32(i32 %.02327.i38, i32 %49)
  %indvars.iv.next.i40 = add nuw nsw i64 %indvars.iv.i37, 1
  %exitcond.not.i41 = icmp eq i64 %indvars.iv.next.i40, 64
  br i1 %exitcond.not.i41, label %dct_max8x8_c.exit42, label %45, !llvm.loop !73

dct_max8x8_c.exit42:                              ; preds = %45
  %50 = add nuw nsw i32 %spec.select.i33, %28
  call void @llvm.lifetime.end.p0(i64 128, ptr nonnull %6) #12
  %51 = add nuw nsw i32 %50, %spec.select.i39
  br label %52

52:                                               ; preds = %dct_max8x8_c.exit42, %dct_max8x8_c.exit30
  %.0 = phi i32 [ %51, %dct_max8x8_c.exit42 ], [ %28, %dct_max8x8_c.exit30 ]
  ret i32 %.0
}